target datalayout = "e-m:e-p270:32:32-p271:32:32-p272:64:64-i64:64-i128:128-f80:128-n8:16:32:64-S128"
target triple = "x86_64-pc-linux-gnu"

%struct.AVFilterContext = type { ptr, ptr, ptr, ptr, ptr, i32, ptr, ptr, i32, ptr, ptr, i32, i32, ptr, ptr, ptr, ptr, i32, ptr, i32, i32 }
%struct.TelecineContext = type { ptr, i32, ptr, i32, i64, %struct.AVRational, %struct.AVRational, i32, i32, i32, [4 x i32], [4 x i32], [5 x ptr], ptr }
%struct.AVRational = type { i32, i32 }

@.str.20 = private unnamed_addr constant [22 x i8] c"No pattern provided.\0A\00", align 1
@.str.21 = private unnamed_addr constant [51 x i8] c"Provided pattern includes non-numeric characters.\0A\00", align 1
@.str.22 = private unnamed_addr constant [81 x i8] c"Telecine pattern %s yields up to %d frames per frame, pts advance factor: %d/%d\0A\00", align 1

; Function Attrs: inlinehint nounwind willreturn memory(none) uwtable
define internal i32 @av_isdigit(i32 noundef %0) #10 {
  %2 = alloca i32, align 4
  store i32 %0, ptr %2, align 4, !tbaa !24
  %3 = load i32, ptr %2, align 4, !tbaa !24
  %4 = icmp sge i32 %3, 48
  br i1 %4, label %5, label %8

5:                                                ; preds = %1
  %6 = load i32, ptr %2, align 4, !tbaa !24
  %7 = icmp sle i32 %6, 57
  br label %8

8:                                                ; preds = %5, %1
  %9 = phi i1 [ false, %1 ], [ %7, %5 ]
  %10 = zext i1 %9 to i32
  ret i32 %10
}

; Function Attrs: cold nounwind optsize uwtable
define internal i32 @init(ptr noundef %0) #0 {
  %2 = alloca i32, align 4
  %3 = alloca ptr, align 8
  %4 = alloca ptr, align 8
  %5 = alloca ptr, align 8
  %6 = alloca i32, align 4
  %7 = alloca i32, align 4
  store ptr %0, ptr %3, align 8, !tbaa !4
  call void @llvm.lifetime.start.p0(i64 8, ptr %4) #11
  %8 = load ptr, ptr %3, align 8, !tbaa !4
  %9 = getelementptr inbounds nuw %struct.AVFilterContext, ptr %8, i32 0, i32 9
  %10 = load ptr, ptr %9, align 8, !tbaa !9
  store ptr %10, ptr %4, align 8, !tbaa !22
  call void @llvm.lifetime.start.p0(i64 8, ptr %5) #11
  call void @llvm.lifetime.start.p0(i64 4, ptr %6) #11
  store i32 0, ptr %6, align 4, !tbaa !24
  %11 = load ptr, ptr %4, align 8, !tbaa !22
  %12 = getelementptr inbounds nuw %struct.TelecineContext, ptr %11, i32 0, i32 2
  %13 = load ptr, ptr %12, align 8, !tbaa !25
  %14 = call i64 @strlen(ptr noundef %13) #12
  %15 = icmp ne i64 %14, 0
  br i1 %15, label %18, label %16

16:                                               ; preds = %1
  %17 = load ptr, ptr %3, align 8, !tbaa !4
  call void (ptr, i32, ptr, ...) @av_log(ptr noundef %17, i32 noundef 16, ptr noundef @.str.20)
  store i32 -1094995529, ptr %2, align 4
  store i32 1, ptr %7, align 4
  br label %90

18:                                               ; preds = %1
  %19 = load ptr, ptr %4, align 8, !tbaa !22
  %20 = getelementptr inbounds nuw %struct.TelecineContext, ptr %19, i32 0, i32 2
  %21 = load ptr, ptr %20, align 8, !tbaa !25
  store ptr %21, ptr %5, align 8, !tbaa !30
  br label %22

22:                                               ; preds = %64, %18
  %23 = load ptr, ptr %5, align 8, !tbaa !30
  %24 = load i8, ptr %23, align 1, !tbaa !31
  %25 = icmp ne i8 %24, 0
  br i1 %25, label %26, label %67

26:                                               ; preds = %22
  %27 = load ptr, ptr %5, align 8, !tbaa !30
  %28 = load i8, ptr %27, align 1, !tbaa !31
  %29 = sext i8 %28 to i32
  %30 = call i32 @av_isdigit(i32 noundef %29) #13
  %31 = icmp ne i32 %30, 0
  br i1 %31, label %34, label %32

32:                                               ; preds = %26
  %33 = load ptr, ptr %3, align 8, !tbaa !4
  call void (ptr, i32, ptr, ...) @av_log(ptr noundef %33, i32 noundef 16, ptr noundef @.str.21)
  store i32 -1094995529, ptr %2, align 4
  store i32 1, ptr %7, align 4
  br label %90

34:                                               ; preds = %26
  %35 = load ptr, ptr %5, align 8, !tbaa !30
  %36 = load i8, ptr %35, align 1, !tbaa !31
  %37 = sext i8 %36 to i32
  %38 = sub nsw i32 %37, 48
  %39 = load i32, ptr %6, align 4, !tbaa !24
  %40 = icmp sgt i32 %38, %39
  br i1 %40, label %41, label %46

41:                                               ; preds = %34
  %42 = load ptr, ptr %5, align 8, !tbaa !30
  %43 = load i8, ptr %42, align 1, !tbaa !31
  %44 = sext i8 %43 to i32
  %45 = sub nsw i32 %44, 48
  br label %48

46:                                               ; preds = %34
  %47 = load i32, ptr %6, align 4, !tbaa !24
  br label %48

48:                                               ; preds = %46, %41
  %49 = phi i32 [ %45, %41 ], [ %47, %46 ]
  store i32 %49, ptr %6, align 4, !tbaa !24
  %50 = load ptr, ptr %4, align 8, !tbaa !22
  %51 = getelementptr inbounds nuw %struct.TelecineContext, ptr %50, i32 0, i32 5
  %52 = getelementptr inbounds nuw %struct.AVRational, ptr %51, i32 0, i32 0
  %53 = load i32, ptr %52, align 8, !tbaa !32
  %54 = add nsw i32 %53, 2
  store i32 %54, ptr %52, align 8, !tbaa !32
  %55 = load ptr, ptr %5, align 8, !tbaa !30
  %56 = load i8, ptr %55, align 1, !tbaa !31
  %57 = sext i8 %56 to i32
  %58 = sub nsw i32 %57, 48
  %59 = load ptr, ptr %4, align 8, !tbaa !22
  %60 = getelementptr inbounds nuw %struct.TelecineContext, ptr %59, i32 0, i32 5
  %61 = getelementptr inbounds nuw %struct.AVRational, ptr %60, i32 0, i32 1
  %62 = load i32, ptr %61, align 4, !tbaa !33
  %63 = add nsw i32 %62, %58
  store i32 %63, ptr %61, align 4, !tbaa !33
  br label %64

64:                                               ; preds = %48
  %65 = load ptr, ptr %5, align 8, !tbaa !30
  %66 = getelementptr inbounds nuw i8, ptr %65, i32 1
  store ptr %66, ptr %5, align 8, !tbaa !30
  br label %22, !llvm.loop !34

67:                                               ; preds = %22
  %68 = load ptr, ptr %4, align 8, !tbaa !22
  %69 = getelementptr inbounds nuw %struct.TelecineContext, ptr %68, i32 0, i32 4
  store i64 -9223372036854775808, ptr %69, align 8, !tbaa !36
  %70 = load i32, ptr %6, align 4, !tbaa !24
  %71 = add nsw i32 %70, 1
  %72 = sdiv i32 %71, 2
  %73 = load ptr, ptr %4, align 8, !tbaa !22
  %74 = getelementptr inbounds nuw %struct.TelecineContext, ptr %73, i32 0, i32 7
  store i32 %72, ptr %74, align 8, !tbaa !37
  %75 = load ptr, ptr %3, align 8, !tbaa !4
  %76 = load ptr, ptr %4, align 8, !tbaa !22
  %77 = getelementptr inbounds nuw %struct.TelecineContext, ptr %76, i32 0, i32 2
  %78 = load ptr, ptr %77, align 8, !tbaa !25
  %79 = load ptr, ptr %4, align 8, !tbaa !22
  %80 = getelementptr inbounds nuw %struct.TelecineContext, ptr %79, i32 0, i32 7
  %81 = load i32, ptr %80, align 8, !tbaa !37
  %82 = load ptr, ptr %4, align 8, !tbaa !22
  %83 = getelementptr inbounds nuw %struct.TelecineContext, ptr %82, i32 0, i32 5
  %84 = getelementptr inbounds nuw %struct.AVRational, ptr %83, i32 0, i32 0
  %85 = load i32, ptr %84, align 8, !tbaa !32
  %86 = load ptr, ptr %4, align 8, !tbaa !22
  %87 = getelementptr inbounds nuw %struct.TelecineContext, ptr %86, i32 0, i32 5
  %88 = getelementptr inbounds nuw %struct.AVRational, ptr %87, i32 0, i32 1
  %89 = load i32, ptr %88, align 4, !tbaa !33
  call void (ptr, i32, ptr, ...) @av_log(ptr noundef %75, i32 noundef 32, ptr noundef @.str.22, ptr noundef %78, i32 noundef %81, i32 noundef %85, i32 noundef %89)
  store i32 0, ptr %2, align 4
  store i32 1, ptr %7, align 4
  br label %90

90:                                               ; preds = %67, %32, %16
  call void @llvm.lifetime.end.p0(i64 4, ptr %6) #11
  call void @llvm.lifetime.end.p0(i64 8, ptr %5) #11
  call void @llvm.lifetime.end.p0(i64 8, ptr %4) #11
  %91 = load i32, ptr %2, align 4
  ret i32 %91
}