; Function Attrs: cold nounwind optsize uwtable
define internal range(i32 -1094995529, 1) i32 @init(ptr noundef %0) #0 {
  %2 = getelementptr inbounds nuw i8, ptr %0, i64 72
  %3 = load ptr, ptr %2, align 8, !tbaa !4
  %4 = getelementptr inbounds nuw i8, ptr %3, i64 16
  %5 = load ptr, ptr %4, align 8, !tbaa !20
  %char0 = load i8, ptr %5, align 1
  %.not = icmp eq i8 %char0, 0
  br i1 %.not, label %8, label %.preheader

.preheader:                                       ; preds = %1
  %6 = getelementptr inbounds nuw i8, ptr %3, i64 40
  %7 = getelementptr inbounds nuw i8, ptr %3, i64 44
  br label %9

8:                                                ; preds = %1
  tail call void (ptr, i32, ptr, ...) @av_log(ptr noundef nonnull %0, i32 noundef 16, ptr noundef nonnull @.str.20) #5
  br label %29

9:                                                ; preds = %.preheader, %15
  %.031 = phi i32 [ 0, %.preheader ], [ %..0, %15 ]
  %.02330 = phi ptr [ %5, %.preheader ], [ %23, %15 ]
  %10 = phi i8 [ %char0, %.preheader ], [ %.pr, %15 ]
  %11 = sext i8 %10 to i32
  %12 = add nsw i32 %11, -48
  %13 = icmp ugt i32 %12, 9
  br i1 %13, label %14, label %15

14:                                               ; preds = %9
  tail call void (ptr, i32, ptr, ...) @av_log(ptr noundef %0, i32 noundef 16, ptr noundef nonnull @.str.21) #5
  br label %29

15:                                               ; preds = %9
  %..0 = tail call i32 @llvm.smax.i32(i32 %12, i32 %.031)
  %16 = load i32, ptr %6, align 8, !tbaa !25
  %17 = add nsw i32 %16, 2
  store i32 %17, ptr %6, align 8, !tbaa !25
  %18 = load i8, ptr %.02330, align 1, !tbaa !26
  %19 = sext i8 %18 to i32
  %20 = add nsw i32 %19, -48
  %21 = load i32, ptr %7, align 4, !tbaa !27
  %22 = add nsw i32 %20, %21
  store i32 %22, ptr %7, align 4, !tbaa !27
  %23 = getelementptr inbounds nuw i8, ptr %.02330, i64 1
  %.pr = load i8, ptr %23, align 1, !tbaa !26
  %.not27 = icmp eq i8 %.pr, 0
  br i1 %.not27, label %24, label %9, !llvm.loop !28

24:                                               ; preds = %15
  %25 = getelementptr inbounds nuw i8, ptr %3, i64 32
  store i64 -9223372036854775808, ptr %25, align 8, !tbaa !30
  %26 = add nuw nsw i32 %..0, 1
  %27 = lshr i32 %26, 1
  %28 = getelementptr inbounds nuw i8, ptr %3, i64 56
  store i32 %27, ptr %28, align 8, !tbaa !31
  tail call void (ptr, i32, ptr, ...) @av_log(ptr noundef %0, i32 noundef 32, ptr noundef nonnull @.str.22, ptr noundef nonnull %5, i32 noundef %27, i32 noundef %17, i32 noundef %22) #5
  br label %29

29:                                               ; preds = %24, %14, %8
  %.024 = phi i32 [ -1094995529, %14 ], [ 0, %24 ], [ -1094995529, %8 ]
  ret i32 %.024
}